; ModuleID = 'source-C-CXX/33/472.c'
source_filename = "source-C-CXX/33/472.c"
target datalayout = "e-m:e-p270:32:32-p271:32:32-p272:64:64-i64:64-f80:128-n8:16:32:64-S128"
target triple = "x86_64-pc-linux-gnu"

@.str = private unnamed_addr constant [3 x i8] c"%d\00", align 1
@.str.1 = private unnamed_addr constant [4 x i8] c"End\00", align 1
@.str.2 = private unnamed_addr constant [11 x i8] c"%d*3+1=%d\0A\00", align 1
@.str.3 = private unnamed_addr constant [9 x i8] c"%d/2=%d\0A\00", align 1

; Function Attrs: nofree nounwind sspstrong uwtable
define dso_local i32 @main() local_unnamed_addr #0 {
  %1 = alloca i32, align 4
  %2 = alloca [10000 x i32], align 16
  %3 = bitcast i32* %1 to i8*
  call void @llvm.lifetime.start.p0i8(i64 4, i8* nonnull %3) #3
  %4 = bitcast [10000 x i32]* %2 to i8*
  call void @llvm.lifetime.start.p0i8(i64 40000, i8* nonnull %4) #3
  %5 = call i32 (i8*, ...) @__isoc99_scanf(i8* getelementptr inbounds ([3 x i8], [3 x i8]* @.str, i64 0, i64 0), i32* nonnull %1)
  %6 = load i32, i32* %1, align 4, !tbaa !5
  %7 = getelementptr inbounds [10000 x i32], [10000 x i32]* %2, i64 0, i64 0
  store i32 %6, i32* %7, align 16, !tbaa !5
  %8 = icmp eq i32 %6, 1
  br i1 %8, label %9, label %13

9:                                                ; preds = %0
  %10 = call i32 (i8*, ...) @printf(i8* nonnull dereferenceable(1) getelementptr inbounds ([4 x i8], [4 x i8]* @.str.1, i64 0, i64 0))
  %11 = load i32, i32* %1, align 4, !tbaa !5
  %12 = icmp eq i32 %11, 1
  br i1 %12, label %46, label %13

13:                                               ; preds = %0, %9
  br label %14

14:                                               ; preds = %13, %40
  %15 = phi i32 [ %41, %40 ], [ %6, %13 ]
  %16 = phi i64 [ %43, %40 ], [ 1, %13 ]
  %17 = add nsw i64 %16, -1
  %18 = getelementptr inbounds [10000 x i32], [10000 x i32]* %2, i64 0, i64 %17
  %19 = srem i32 %15, 2
  %20 = sdiv i32 %15, 2
  %21 = icmp eq i32 %19, 1
  br i1 %21, label %25, label %22

22:                                               ; preds = %14
  %23 = getelementptr inbounds [10000 x i32], [10000 x i32]* %2, i64 0, i64 %16
  %24 = load i32, i32* %23, align 4, !tbaa !5
  br label %30

25:                                               ; preds = %14
  %26 = mul nsw i32 %15, 3
  %27 = add nsw i32 %26, 1
  %28 = getelementptr inbounds [10000 x i32], [10000 x i32]* %2, i64 0, i64 %16
  store i32 %27, i32* %28, align 4, !tbaa !5
  %29 = call i32 (i8*, ...) @printf(i8* nonnull dereferenceable(1) getelementptr inbounds ([11 x i8], [11 x i8]* @.str.2, i64 0, i64 0), i32 %15, i32 %27)
  br label %30

30:                                               ; preds = %22, %25
  %31 = phi i32 [ %24, %22 ], [ %27, %25 ]
  %32 = getelementptr inbounds [10000 x i32], [10000 x i32]* %2, i64 0, i64 %16
  %33 = icmp eq i32 %31, 1
  br i1 %33, label %44, label %34

34:                                               ; preds = %30
  %35 = and i32 %15, 1
  %36 = icmp eq i32 %35, 0
  br i1 %36, label %37, label %40

37:                                               ; preds = %34
  store i32 %20, i32* %32, align 4, !tbaa !5
  %38 = load i32, i32* %18, align 4, !tbaa !5
  %39 = call i32 (i8*, ...) @printf(i8* nonnull dereferenceable(1) getelementptr inbounds ([9 x i8], [9 x i8]* @.str.3, i64 0, i64 0), i32 %38, i32 %20)
  br label %40

40:                                               ; preds = %34, %37
  %41 = phi i32 [ %20, %37 ], [ %31, %34 ]
  %42 = icmp eq i32 %41, 1
  %43 = add nuw i64 %16, 1
  br i1 %42, label %44, label %14

44:                                               ; preds = %40, %30
  %45 = call i32 (i8*, ...) @printf(i8* nonnull dereferenceable(1) getelementptr inbounds ([4 x i8], [4 x i8]* @.str.1, i64 0, i64 0))
  br label %46

46:                                               ; preds = %44, %9
  call void @llvm.lifetime.end.p0i8(i64 40000, i8* nonnull %4) #3
  call void @llvm.lifetime.end.p0i8(i64 4, i8* nonnull %3) #3
  ret i32 0
}

; Function Attrs: argmemonly mustprogress nofree nosync nounwind willreturn
declare void @llvm.lifetime.start.p0i8(i64 immarg, i8* nocapture) #1

; Function Attrs: nofree nounwind
declare noundef i32 @__isoc99_scanf(i8* nocapture noundef readonly, ...) local_unnamed_addr #2

; Function Attrs: nofree nounwind
declare noundef i32 @printf(i8* nocapture noundef readonly, ...) local_unnamed_addr #2

; Function Attrs: argmemonly mustprogress nofree nosync nounwind willreturn
declare void @llvm.lifetime.end.p0i8(i64 immarg, i8* nocapture) #1


!llvm.module.flags = !{!0, !1, !2, !3}
!llvm.ident = !{!4}

!0 = !{i32 1, !"wchar_size", i32 4}
!1 = !{i32 7, !"PIC Level", i32 2}
!2 = !{i32 7, !"PIE Level", i32 2}
!3 = !{i32 7, !"uwtable", i32 1}
!4 = !{!"clang version 13.0.0"}
!5 = !{!6, !6, i64 0}
!6 = !{!"int", !7, i64 0}
!7 = !{!"omnipotent char", !8, i64 0}
!8 = !{!"Simple C/C++ TBAA"}
